target datalayout = "e-m:e-p270:32:32-p271:32:32-p272:64:64-i64:64-i128:128-f80:128-n8:16:32:64-S128"
target triple = "x86_64-pc-linux-gnu"

%struct.object_id = type { [32 x i8], i32 }
%struct.worktree = type { ptr, ptr, ptr, ptr, ptr, ptr, %struct.object_id, i32, i32, i32, i32, i32 }

@.str.86 = private unnamed_addr constant [20 x i8] c"'%s' already exists\00", align 1
@.str.87 = private unnamed_addr constant [35 x i8] c"unusable worktree destination '%s'\00", align 1
@.str.88 = private unnamed_addr constant [112 x i8] c"'%s' is a missing but locked worktree;\0Ause '%s -f -f' to override, or 'unlock' and 'prune' or 'remove' to clear\00", align 1
@.str.89 = private unnamed_addr constant [108 x i8] c"'%s' is a missing but already registered worktree;\0Ause '%s -f' to override, or 'prune' or 'remove' to clear\00", align 1

; Function Attrs: nounwind uwtable
define internal void @check_candidate_path(ptr noundef %0, i32 noundef %1, ptr noundef %2, ptr noundef %3) #0 {
  %5 = alloca ptr, align 8
  %6 = alloca i32, align 4
  %7 = alloca ptr, align 8
  %8 = alloca ptr, align 8
  %9 = alloca ptr, align 8
  %10 = alloca i32, align 4
  %11 = alloca i32, align 4
  store ptr %0, ptr %5, align 8, !tbaa !11
  store i32 %1, ptr %6, align 4, !tbaa !4
  store ptr %2, ptr %7, align 8, !tbaa !61
  store ptr %3, ptr %8, align 8, !tbaa !11
  call void @llvm.lifetime.start.p0(i64 8, ptr %9) #11
  call void @llvm.lifetime.start.p0(i64 4, ptr %10) #11
  %12 = load ptr, ptr %5, align 8, !tbaa !11
  %13 = call i32 @file_exists(ptr noundef %12)
  %14 = icmp ne i32 %13, 0
  br i1 %14, label %15, label %22

15:                                               ; preds = %4
  %16 = load ptr, ptr %5, align 8, !tbaa !11
  %17 = call i32 @is_empty_dir(ptr noundef %16)
  %18 = icmp ne i32 %17, 0
  br i1 %18, label %22, label %19

19:                                               ; preds = %15
  %20 = call ptr @_(ptr noundef @.str.86)
  %21 = load ptr, ptr %5, align 8, !tbaa !11
  call void (ptr, ...) @die(ptr noundef %20, ptr noundef %21) #12
  unreachable

22:                                               ; preds = %15, %4
  %23 = load ptr, ptr %7, align 8, !tbaa !61
  %24 = load ptr, ptr %5, align 8, !tbaa !11
  %25 = call ptr @find_worktree_by_path(ptr noundef %23, ptr noundef %24)
  store ptr %25, ptr %9, align 8, !tbaa !63
  %26 = load ptr, ptr %9, align 8, !tbaa !63
  %27 = icmp ne ptr %26, null
  br i1 %27, label %29, label %28

28:                                               ; preds = %22
  store i32 1, ptr %11, align 4
  br label %68

29:                                               ; preds = %22
  %30 = load ptr, ptr %9, align 8, !tbaa !63
  %31 = call ptr @worktree_lock_reason(ptr noundef %30)
  %32 = icmp ne ptr %31, null
  %33 = xor i1 %32, true
  %34 = xor i1 %33, true
  %35 = zext i1 %34 to i32
  store i32 %35, ptr %10, align 4, !tbaa !4
  %36 = load i32, ptr %10, align 4, !tbaa !4
  %37 = icmp ne i32 %36, 0
  br i1 %37, label %41, label %38

38:                                               ; preds = %29
  %39 = load i32, ptr %6, align 4, !tbaa !4
  %40 = icmp ne i32 %39, 0
  br i1 %40, label %47, label %41

41:                                               ; preds = %38, %29
  %42 = load i32, ptr %10, align 4, !tbaa !4
  %43 = icmp ne i32 %42, 0
  br i1 %43, label %44, label %57

44:                                               ; preds = %41
  %45 = load i32, ptr %6, align 4, !tbaa !4
  %46 = icmp sgt i32 %45, 1
  br i1 %46, label %47, label %57

47:                                               ; preds = %44, %38
  %48 = load ptr, ptr %9, align 8, !tbaa !63
  %49 = getelementptr inbounds nuw %struct.worktree, ptr %48, i32 0, i32 2
  %50 = load ptr, ptr %49, align 8, !tbaa !68
  %51 = call i32 @delete_git_dir(ptr noundef %50)
  %52 = icmp ne i32 %51, 0
  br i1 %52, label %53, label %56

53:                                               ; preds = %47
  %54 = call ptr @_(ptr noundef @.str.87)
  %55 = load ptr, ptr %5, align 8, !tbaa !11
  call void (ptr, ...) @die(ptr noundef %54, ptr noundef %55) #12
  unreachable

56:                                               ; preds = %47
  store i32 1, ptr %11, align 4
  br label %68

57:                                               ; preds = %44, %41
  %58 = load i32, ptr %10, align 4, !tbaa !4
  %59 = icmp ne i32 %58, 0
  br i1 %59, label %60, label %64

60:                                               ; preds = %57
  %61 = call ptr @_(ptr noundef @.str.88)
  %62 = load ptr, ptr %5, align 8, !tbaa !11
  %63 = load ptr, ptr %8, align 8, !tbaa !11
  call void (ptr, ...) @die(ptr noundef %61, ptr noundef %62, ptr noundef %63) #12
  unreachable

64:                                               ; preds = %57
  %65 = call ptr @_(ptr noundef @.str.89)
  %66 = load ptr, ptr %5, align 8, !tbaa !11
  %67 = load ptr, ptr %8, align 8, !tbaa !11
  call void (ptr, ...) @die(ptr noundef %65, ptr noundef %66, ptr noundef %67) #12
  unreachable

68:                                               ; preds = %56, %28
  call void @llvm.lifetime.end.p0(i64 4, ptr %10) #11
  call void @llvm.lifetime.end.p0(i64 8, ptr %9) #11
  ret void
}