; Function Attrs: nounwind uwtable
define internal fastcc void @check_candidate_path(ptr noundef %0, i32 noundef %1, ptr noundef %2, ptr noundef %3) unnamed_addr #0 {
  %5 = tail call i32 @file_exists(ptr noundef %0) #18
  %.not = icmp eq i32 %5, 0
  br i1 %.not, label %10, label %6

6:                                                ; preds = %4
  %7 = tail call i32 @is_empty_dir(ptr noundef %0) #18
  %.not20 = icmp eq i32 %7, 0
  br i1 %.not20, label %8, label %10

8:                                                ; preds = %6
  %9 = tail call fastcc ptr @_(ptr noundef nonnull @.str.86)
  tail call void (ptr, ...) @die(ptr noundef %9, ptr noundef %0) #19
  unreachable

10:                                               ; preds = %6, %4
  %11 = tail call ptr @find_worktree_by_path(ptr noundef %2, ptr noundef %0) #18
  %.not21 = icmp eq ptr %11, null
  br i1 %.not21, label %27, label %12

12:                                               ; preds = %10
  %13 = tail call ptr @worktree_lock_reason(ptr noundef nonnull %11) #18
  %.not24 = icmp eq ptr %13, null
  %14 = icmp ne i32 %1, 0
  %15 = icmp sgt i32 %1, 1
  %or.cond = select i1 %.not24, i1 %14, i1 %15
  br i1 %or.cond, label %16, label %22

16:                                               ; preds = %12
  %17 = getelementptr inbounds nuw i8, ptr %11, i64 16
  %18 = load ptr, ptr %17, align 8, !tbaa !91
  %19 = tail call fastcc i32 @delete_git_dir(ptr noundef %18)
  %.not23 = icmp eq i32 %19, 0
  br i1 %.not23, label %27, label %20

20:                                               ; preds = %16
  %21 = tail call fastcc ptr @_(ptr noundef nonnull @.str.87)
  tail call void (ptr, ...) @die(ptr noundef %21, ptr noundef %0) #19
  unreachable

22:                                               ; preds = %12
  br i1 %.not24, label %25, label %23

23:                                               ; preds = %22
  %24 = tail call fastcc ptr @_(ptr noundef nonnull @.str.88)
  tail call void (ptr, ...) @die(ptr noundef %24, ptr noundef %0, ptr noundef %3) #19
  unreachable

25:                                               ; preds = %22
  %26 = tail call fastcc ptr @_(ptr noundef nonnull @.str.89)
  tail call void (ptr, ...) @die(ptr noundef %26, ptr noundef %0, ptr noundef %3) #19
  unreachable

27:                                               ; preds = %16, %10
  ret void
}